(dp0
S'common'
p1
(dp2
S'jquery.js'
p3
S'/common/js/jquery-20170131-152616.js'
p4
sS'quiz.js'
p5
S'/common/js/quiz-20170131-152616.js'
p6
sS'questionnaire.js'
p7
S'/common/js/questionnaire-20170131-152616.js'
p8
sS'instructions.css'
p9
S'/common/css/instructions-20170131-152616.css'
p10
sS'simulateMouse.css'
p11
S'/common/css/simulateMouse-20170131-152616.css'
p12
sS'questionnaire.css'
p13
S'/common/css/questionnaire-20170131-152616.css'
p14
sS'video.js'
p15
S'/common/js/video-20170131-152616.js'
p16
sS'simulateMouse.js'
p17
S'/common/js/simulateMouse-20170131-152616.js'
p18
sS'monitor.js'
p19
S'/common/js/monitor-20170131-152616.js'
p20
sS'quiz.css'
p21
S'/common/css/quiz-20170131-152616.css'
p22
sS'instructions.js'
p23
S'/common/js/instructions-20170131-152616.js'
p24
sS'index.css'
p25
S'/common/css/index-20170131-152616.css'
p26
sS'common.js'
p27
S'/common/js/common-20170131-152616.js'
p28
sS'common.css'
p29
S'/common/css/common-20170131-152616.css'
p30
sS'velocity.js'
p31
S'/common/js/velocity-20170131-152616.js'
p32
sS'switch.css'
p33
S'/common/css/switch-20170131-152616.css'
p34
sS'monitor.css'
p35
S'/common/css/monitor-20170131-152616.css'
p36
sS'websocketConnect.js'
p37
S'/common/js/websocketConnect-20170131-152616.js'
p38
ssS'/strategyChoiceReplicateDBF/'
p39
(dp40
S'experiment.css'
p41
S'/_strategyChoiceReplicateDBF_/css/experiment-20170130-185023.css'
p42
sS'experiment.js'
p43
S'/_strategyChoiceReplicateDBF_/js/experiment-20170130-185023.js'
p44
sS'config.js'
p45
S'/_strategyChoiceReplicateDBF_/js/config-20170130-185023.js'
p46
sS'instructions.js'
p47
S'/_strategyChoiceReplicateDBF_/js/instructions-20170130-185023.js'
p48
ssS'/normalForm/'
p49
(dp50
S'experiment.css'
p51
S'/_normalForm_/css/experiment-20170131-152616.css'
p52
sS'experiment.js'
p53
S'/_normalForm_/js/experiment-20170131-152616.js'
p54
sS'config.js'
p55
S'/_normalForm_/js/config-20170131-152616.js'
p56
sS'instructions.js'
p57
S'/_normalForm_/js/instructions-20170131-152616.js'
p58
ssS'/testing/'
p59
(dp60
S'experiment.css'
p61
S'/_testing_/css/experiment-20161201-214539.css'
p62
sS'experiment.js'
p63
S'/_testing_/js/experiment-20170103-190029.js'
p64
sS'config.js'
p65
S'/_testing_/js/config-20170111-102206.js'
p66
sS'quiz.js'
p67
S'/_testing_/js/quiz-20161202-101226.js'
p68
sS'instructions.js'
p69
S'/_testing_/js/instructions-20161201-214539.js'
p70
ssS'/strategyChoiceCosts/'
p71
(dp72
S'experiment.css'
p73
S'/_strategyChoiceCosts_/css/experiment-20170104-172547.css'
p74
sS'experiment.js'
p75
S'/_strategyChoiceCosts_/js/experiment-20170105-100257.js'
p76
sS'config.js'
p77
S'/_strategyChoiceCosts_/js/config-20170104-182128.js'
p78
sS'instructions.js'
p79
S'/_strategyChoiceCosts_/js/instructions-20170106-101200.js'
p80
ss.