(dp0
S'common'
p1
(dp2
S'jquery.js'
p3
S'/common/js/jquery-20170104-172605.js'
p4
sS'quiz.js'
p5
S'/common/js/quiz-20170104-172605.js'
p6
sS'questionnaire.js'
p7
S'/common/js/questionnaire-20170104-172605.js'
p8
sS'simulateMouse.css'
p9
S'/common/css/simulateMouse-20170104-172605.css'
p10
sS'questionnaire.css'
p11
S'/common/css/questionnaire-20170104-172605.css'
p12
sS'switch.css'
p13
S'/common/css/switch-20170104-172605.css'
p14
sS'video.js'
p15
S'/common/js/video-20170104-172605.js'
p16
sS'simulateMouse.js'
p17
S'/common/js/simulateMouse-20170104-172605.js'
p18
sS'velocity.js'
p19
S'/common/js/velocity-20170104-172605.js'
p20
sS'quiz.css'
p21
S'/common/css/quiz-20170104-172605.css'
p22
sS'instructions.js'
p23
S'/common/js/instructions-20170106-102417.js'
p24
sS'index.css'
p25
S'/common/css/index-20170104-172605.css'
p26
sS'common.js'
p27
S'/common/js/common-20170105-100316.js'
p28
sS'instructions.css'
p29
S'/common/css/instructions-20170104-172605.css'
p30
sS'monitor.js'
p31
S'/common/js/monitor-20170104-172605.js'
p32
sS'common.css'
p33
S'/common/css/common-20170104-172605.css'
p34
sS'monitor.css'
p35
S'/common/css/monitor-20170104-172605.css'
p36
sS'websocketConnect.js'
p37
S'/common/js/websocketConnect-20170104-172547.js'
p38
ssS'/testing/'
p39
(dp40
S'experiment.css'
p41
S'/_testing_/css/experiment-20161201-214539.css'
p42
sS'experiment.js'
p43
S'/_testing_/js/experiment-20170103-190029.js'
p44
sS'instructions.js'
p45
S'/_testing_/js/instructions-20161201-214539.js'
p46
sS'config.js'
p47
S'/_testing_/js/config-20170111-102206.js'
p48
sS'quiz.js'
p49
S'/_testing_/js/quiz-20161202-101226.js'
p50
ssS'/strategyChoiceCosts/'
p51
(dp52
S'experiment.css'
p53
S'/_strategyChoiceCosts_/css/experiment-20170104-172547.css'
p54
sS'experiment.js'
p55
S'/_strategyChoiceCosts_/js/experiment-20170105-100257.js'
p56
sS'config.js'
p57
S'/_strategyChoiceCosts_/js/config-20170104-182128.js'
p58
sS'instructions.js'
p59
S'/_strategyChoiceCosts_/js/instructions-20170106-101200.js'
p60
ss.